MPASM 5.86                          MAIN.ASM   11-26-2024  14:22:36         PAGE  1


LOC  OBJECT CODE     LINE SOURCE TEXT
  VALUE

                      00001     ;LIST P=PIC18F4321  F=INHX32
                      00002     #include <p18f4321.inc>
                      00001         LIST
                      00002 
                      00003 ;==========================================================================
                      00004 ; Build date : Oct 24 2019
                      00005 ;  MPASM PIC18F4321 processor include
                      00006 ; 
                      00007 ;  (c) Copyright 1999-2019 Microchip Technology, All rights reserved
                      00008 ;==========================================================================
                      00009 
                      01455         LIST
                      00003     
                      00004     
                      00005     ;   Fosc = 40Mhz        
                      00006     ;   Tinst = 4/40Mhz = 100nS
                      00007     ;   Int de Timer0 cada 100uS
                      00008     CONFIG  OSC=HSPLL           ; Osc -> HSPLL=40Mhz
                      00009     CONFIG  PBADEN=DIG
                      00010     CONFIG  WDT=OFF
                      00011     ;CONFIG  MCLR=ON
                      00012     
                      00013     ORG 0x0000
000000 EF?? F???      00014     GOTO    MAIN
                      00015     ORG 0x0008
000008 EF?? F???      00016     GOTO    HIGH_RSI
                      00017     ORG 0x0018
000018 0011           00018     RETFIE  FAST
                      00019     
                      00020 ;-=-=-=-=-=-=-=-=-=-=-=-=-=-=-=-=-=-=-=-=-=-=-=-=-=-=-=-=-=-=-=-=-=-=-=-=-=-=-=-;
                      00021 ; -----------------------  VAR FLASH   -----------------------------------------;
                      00022 ;-=-=-=-=-=-=-=-=-=-=-=-=-=-=-=-=-=-=-=-=-=-=-=-=-=-=-=-=-=-=-=-=-=-=-=-=-=-=-=-;
                      00023     ; Temps a restar per nota equivalent al total de notes (uS)
                      00024     ORG 0x003A
00003A 64C8           00025     DB .200, .100
00003C 3243           00026     DB .67, .50
00003E 2128           00027     DB .40, .33
000040 191D           00028     DB .29, .25
000042 1416           00029     DB .22, .20
000044 1112           00030     DB .18, .17
000046 0E0F           00031     DB .15, .14
000048 0C0D           00032     DB .13, .12
                      00033     
                      00034 ;-=-=-=-=-=-=-=-=-=-=-=-=-=-=-=-=-=-=-=-=-=-=-=-=-=-=-=-=-=-=-=-=-=-=-=-=-=-=-=-;
                      00035 ; -----------------------  VAR RAM   -------------------------------------------;
                      00036 ;-=-=-=-=-=-=-=-=-=-=-=-=-=-=-=-=-=-=-=-=-=-=-=-=-=-=-=-=-=-=-=-=-=-=-=-=-=-=-=-;
  00000001            00037 CURRENT_NOTE                EQU 0x01    ; Note actual
  00000002            00038 NOTE_LISTENED               EQU 0x02    ; Nota que s'escolta per l'spk
  00000003            00039 LENGTH                      EQU 0x03    ; Duration actual
  00000004            00040 RAM_VALUE_AUX1              EQU 0x04    ; Variable aux per guardar el que es llegeix de la RAM
  00000005            00041 RAM_VALUE_AUX2              EQU 0x05    ; Variable aux per guardar el que es llegeix de la RAM
  00000006            00042 N_NOTES                     EQU 0x06    ; Numero de Notes introduides
  00000007            00043 N_NOTES_REPRODUIDES         EQU 0x07    ; Numero de notes reproduides
MPASM 5.86                          MAIN.ASM   11-26-2024  14:22:36         PAGE  2


LOC  OBJECT CODE     LINE SOURCE TEXT
  VALUE

  00000008            00044 COUNT_10uS                  EQU 0x08    ; Counter auxiliar de 10uS
  00000009            00045 COUNT_500mS_LOW             EQU 0x09    ; Counter per als 500mS LOW
  0000000A            00046 COUNT_500mS_HIGH            EQU 0x0A    ; Counter per als 500mS HIGH
  0000000B            00047 FLAG_500mS                  EQU 0x0B    ; Flag per veure si han passat 500mS
  0000000C            00048 COUNT_3S_LOW                EQU 0x0C    ; Counter per als 500mS LOW
  0000000D            00049 COUNT_3S_HIGH               EQU 0x0D    ; Counter per als 500mS HIGH
  0000000E            00050 FLAG_3S                     EQU 0x0E
  0000000F            00051 COUNT_1mS                   EQU 0x0F
  0000001A            00052 COUNT_LENGTH_LOW            EQU 0x1A
  0000001B            00053 COUNT_LENGTH_HIGH           EQU 0x1B
  0000001C            00054 FLAG_COUNT_LENGTH_STARTED   EQU 0x1C            
  0000001D            00055 FLAG_COUNT_LENGTH_FINISHED  EQU 0x1D
  0000001E            00056 ERROR_MADE                  EQU 0x1E
  0000001F            00057 DISTANCE                    EQU 0x1F    ; Distancia en cm del ultrasons
  00000020            00058 COUNT_17mS                  EQU 0x20
  00000021            00059 COUNT_SERVO                 EQU 0x21
  00000022            00060 TIME_TO_SUBTRACT_SERVO      EQU 0x22
  00000023            00061 COUNT_500uS                 EQU 0x23
  00000024            00062 ENABLE_COUNT_17mS           EQU 0x24
  00000025            00063 SERVO_ENDED_COUNT           EQU 0x25
  00000026            00064 COUNT_SERVO_2               EQU 0x26                
  00000027            00065 NOTE_PERIOD                 EQU 0x27    ; Var que estableix el periode del spk
  00000028            00066 COUNT_N_RSI_ECHO            EQU 0x28    ; Numero de cops que ha arribat la RSI
  00000029            00067 TRIGGER_SENT                EQU 0x29    ; Flag conforme trigger ha estat enviat
  0000002A            00068 ECHO_RECEIVED               EQU 0x2A    ; Fleg conforme echo ha estat rebut
  0000002B            00069 TOTAL_CORRECT               EQU 0x2B
  0000002C            00070 ENABLE_SPEAKER              EQU 0x2C
  0000002D            00071 COUNT_SPEAKER_TIMES         EQU 0x2D
  0000002E            00072 SPEAKER_LEVEL               EQU 0x2E    
  0000002F            00073 COUNT_3S_STARTED            EQU 0x2F
  00000030            00074 DISABLE_COUNT_3S_STARTED    EQU 0x30
                      00075                 
                      00076 ;-=-=-=-=-=-=-=-=-=-=-=-=-=-=-=-=-=-=-=-=-=-=-=-=-=-=-=-=-=-=-=-=-=-=-=-=-=-=-=-;
                      00077 ; -----------------------  INTERRUPTS   ----------------------------------------;
                      00078 ;-=-=-=-=-=-=-=-=-=-=-=-=-=-=-=-=-=-=-=-=-=-=-=-=-=-=-=-=-=-=-=-=-=-=-=-=-=-=-=-;
00004A                00079 HIGH_RSI
00004A B4F2           00080     BTFSC   INTCON, TMR0IF, 0
00004C EC?? F???      00081     CALL    RSI_TIMER0
                      00082     
000050 0011           00083     RETFIE  FAST
                      00084     
000052                00085 RSI_TIMER0
000052 94F2           00086     BCF     INTCON, TMR0IF, 0
000054 EC?? F???      00087     CALL    RESET_TIMER0
                      00088     
000058 AE82           00089     BTFSS   PORTC, 7, 0             ; Comprova si StartGame = 1
00005A 0012           00090     RETURN
                      00091         
00005C EC?? F???      00092     CALL    HANDLE_RSI_ECHO   
000060 EC?? F???      00093     CALL    HANDLE_RSI_SPEAKER
000064 EC?? F???      00094     CALL    HANDLE_RSI_NOTE
000068 EC?? F???      00095     CALL    HANDLE_RSI_SERVO
                      00096 
MPASM 5.86                          MAIN.ASM   11-26-2024  14:22:36         PAGE  3


LOC  OBJECT CODE     LINE SOURCE TEXT
  VALUE

00006C 0012           00097     RETURN
                      00098  
                      00099 ;========== RSI ECHO ================
00006E                00100 HANDLE_RSI_ECHO
00006E AA82           00101     BTFSS   PORTC, 5, 0                     ; Echo actiu?
000070 0012           00102     RETURN                                  ; no -> return
                      00103     
000072 2A28           00104     INCF    COUNT_N_RSI_ECHO, F, 0          ; si -> echo + 1 -> 100uS de echo = 1,72CM
000074 682A           00105     SETF    ECHO_RECEIVED, 0                ; flag començat a rebre echo
000076 0012           00106     RETURN
                      00107 
                      00108 ;========== RSI SPK ================
000078                00109 HANDLE_RSI_SPEAKER
000078 A02C           00110     BTFSS   ENABLE_SPEAKER, 0           ; speaker enabled?
00007A 0012           00111     RETURN                              ; no -> return
                      00112     
                      00113     ; Comprovar si hem arribat al període de canvi
00007C 5027           00114     MOVF    NOTE_PERIOD, W, 0          ; Carrega el valor del període
00007E 5C2D           00115     SUBWF   COUNT_SPEAKER_TIMES, W, 0  ; Resta comptador al període
000080 A4D8           00116     BTFSS   STATUS, Z, 0               ; Si no és 0, continua incrementant
000082 EF?? F???      00117     GOTO    INCREMENT_COUNTER
                      00118 
                      00119     ; Si el comptador arriba al període, canvia el nivell del senyal
000086 EF?? F???      00120     GOTO    CHANGE_SPEAKER_LEVEL
                      00121 
00008A                00122 INCREMENT_COUNTER
00008A 2A2D           00123     INCF    COUNT_SPEAKER_TIMES, F, 0  ; Incrementa comptador
00008C 0012           00124     RETURN
                      00125 
00008E                00126 CHANGE_SPEAKER_LEVEL
                      00127     ; Comprova l'estat actual de SPEAKER_LEVEL per alternar el senyal
00008E B02E           00128     BTFSC   SPEAKER_LEVEL, 0           ; Si SPEAKER_LEVEL = 1, baixa
000090 EF?? F???      00129     GOTO    SPEAKER_LOW
                      00130 
                      00131     ; Si SPEAKER_LEVEL = 0, puja
000094 A02E           00132     BTFSS   SPEAKER_LEVEL, 0
000096 EF?? F???      00133     GOTO    SPEAKER_HIGH
00009A 0012           00134     RETURN
                      00135 
00009C                00136 SPEAKER_HIGH
00009C 888B           00137     BSF     LATC, 4, 0                 ; Activa el pin de l'altaveu (HIGH)
00009E 682E           00138     SETF    SPEAKER_LEVEL, 0           ; Marca l'estat com HIGH
0000A0 6A2D           00139     CLRF    COUNT_SPEAKER_TIMES, 0     ; Reinicia el comptador
0000A2 0012           00140     RETURN
                      00141 
0000A4                00142 SPEAKER_LOW
0000A4 988B           00143     BCF     LATC, 4, 0                 ; Desactiva el pin de l'altaveu (LOW)
0000A6 6A2E           00144     CLRF    SPEAKER_LEVEL, 0           ; Marca l'estat com LOW
0000A8 6A2D           00145     CLRF    COUNT_SPEAKER_TIMES, 0     ; Reinicia el comptador
0000AA 0012           00146     RETURN
                      00147  
                      00148     
                      00149 ;========== RSI NOTE ================
MPASM 5.86                          MAIN.ASM   11-26-2024  14:22:36         PAGE  4


LOC  OBJECT CODE     LINE SOURCE TEXT
  VALUE

0000AC                00150 HANDLE_RSI_NOTE
0000AC EC?? F???      00151     CALL    RSI_COUNT_500mS
0000B0 EC?? F???      00152     CALL    RSI_COUNT_3S
0000B4 EC?? F???      00153     CALL    RSI_COUNT_LENGTH
0000B8 0012           00154     RETURN
                      00155     
                      00156     
0000BA                00157 RSI_COUNT_500mS
0000BA B00B           00158     BTFSC   FLAG_500mS, 0               ; Flag 500mS = 0?
0000BC 0012           00159     RETURN                              ; si -> return
                      00160     
                      00161     ; Resta a la part baixa
0000BE 2E09           00162     DECFSZ  COUNT_500mS_LOW, F, 0       ; count low = 0?
0000C0 EF?? F???      00163     GOTO    END_RSI_COUNT_500mS         ; no -> return
                      00164     
                      00165     ; Si part baixa arriba a zero, resta a la part alta
0000C4 2E0A           00166     DECFSZ  COUNT_500mS_HIGH, F, 0      ; si -> restar a part alta i reset low
0000C6 EF?? F???      00167     GOTO    RESET_COUNT_500mS_LOW       ; Si part alta no és zero, reinicia part baixa
                      00168 
                      00169     ; Si part alta també arriba a zero, activa el flag
0000CA 680B           00170     SETF    FLAG_500mS, 0               ; activar flag 500mS
0000CC 6A1C           00171     CLRF    FLAG_COUNT_LENGTH_STARTED, 0
0000CE EF?? F???      00172     GOTO    END_RSI_COUNT_500mS
                      00173 
0000D2                00174 RESET_COUNT_500mS_LOW
0000D2 0EFF           00175     MOVLW   .255                    ; Reinicia la part baixa
0000D4 6E09           00176     MOVWF   COUNT_500mS_LOW, 0
                      00177 
0000D6                00178 END_RSI_COUNT_500mS
0000D6 0012           00179     RETURN
                      00180     
                      00181  
0000D8                00182 RSI_COUNT_3S
0000D8 B030           00183     BTFSC   DISABLE_COUNT_3S_STARTED, 0, 0
0000DA 0012           00184     RETURN
                      00185     
0000DC B00E           00186     BTFSC   FLAG_3S, 0
0000DE 0012           00187     RETURN
                      00188     
                      00189     ; Resta a la part baixa
0000E0 2E0C           00190     DECFSZ  COUNT_3S_LOW, F, 0
0000E2 EF?? F???      00191     GOTO    END_RSI_COUNT_3S
                      00192     
                      00193     ; Si part baixa arriba a zero, resta a la part alta
0000E6 2E0D           00194     DECFSZ  COUNT_3S_HIGH, F, 0
0000E8 EF?? F???      00195     GOTO    RESET_COUNT_3S_LOW         ; Si part alta no és zero, reinicia part baixa
                      00196 
                      00197     ; Si part alta també arriba a zero, activa el flag
0000EC 680E           00198     SETF    FLAG_3S, 0
0000EE EF?? F???      00199     GOTO    END_RSI_COUNT_3S
                      00200 
0000F2                00201 RESET_COUNT_3S_LOW
0000F2 0EFF           00202     MOVLW   .255                    ; Reinicia la part baixa
MPASM 5.86                          MAIN.ASM   11-26-2024  14:22:36         PAGE  5


LOC  OBJECT CODE     LINE SOURCE TEXT
  VALUE

0000F4 6E0C           00203     MOVWF   COUNT_3S_LOW, 0
0000F6 EF?? F???      00204     GOTO    END_RSI_COUNT_3S
                      00205 
0000FA                00206 END_RSI_COUNT_3S
0000FA 0012           00207     RETURN    
                      00208     
                      00209     
0000FC                00210 RSI_COUNT_LENGTH
0000FC A00B           00211     BTFSS   FLAG_500mS, 0           ; flag 500mS = 1?
0000FE 0012           00212     RETURN                          ; no -> return
                      00213     
                      00214     ; Resta a la part baixa
000100 2E1A           00215     DECFSZ  COUNT_LENGTH_LOW, F, 0  ; si -> comptar -> count = 0?
000102 EF?? F???      00216     GOTO    END_RSI_COUNT_LENGTH    ; no -> return
                      00217     
                      00218     ; Si part baixa arriba a zero, resta a la part alta
000106 2E1B           00219     DECFSZ  COUNT_LENGTH_HIGH, F, 0 ; si -> count_high = 0?
000108 EF?? F???      00220     GOTO    RESET_COUNT_LENGTH_LOW  ; Si part alta no és zero, reinicia part baixa
                      00221 
                      00222     ; Si part alta també arriba a zero, activa el flag
00010C 681D           00223     SETF    FLAG_COUNT_LENGTH_FINISHED, 0
00010E EF?? F???      00224     GOTO    END_RSI_COUNT_LENGTH
                      00225 
000112                00226 RESET_COUNT_LENGTH_LOW
000112 0EFF           00227     MOVLW   .255                    ; Reinicia la part baixa
000114 6E1A           00228     MOVWF   COUNT_LENGTH_LOW, 0
000116 EF?? F???      00229     GOTO    END_RSI_COUNT_LENGTH
                      00230 
00011A                00231 END_RSI_COUNT_LENGTH
00011A 0012           00232     RETURN
                      00233  
                      00234     
                      00235 ;========== RSI SERVO ================  
00011C                00236 HANDLE_RSI_SERVO
                      00237     ; Comprova si estem comptant els 17 ms
00011C B024           00238     BTFSC   ENABLE_COUNT_17mS, 0
00011E EF?? F???      00239     GOTO    COUNT_RSI_17mS
                      00240 
                      00241     ; Si el cicle ha acabat, torna a començar
000122 A025           00242     BTFSS   SERVO_ENDED_COUNT, 0
000124 0012           00243     RETURN
                      00244 
000126 0E96           00245     MOVLW   .150
000128 6E20           00246     MOVWF   COUNT_17mS, 0
00012A 6824           00247     SETF    ENABLE_COUNT_17mS, 0
00012C 0012           00248     RETURN
                      00249 
00012E                00250 COUNT_RSI_17mS
                      00251     ; Decrementa el comptador de 17 ms
00012E 2E20           00252     DECFSZ  COUNT_17mS, F, 0
000130 EF?? F???      00253     GOTO    END_SERVO
                      00254 
                      00255     ; Si arriba a 0, marca el final del cicle
MPASM 5.86                          MAIN.ASM   11-26-2024  14:22:36         PAGE  6


LOC  OBJECT CODE     LINE SOURCE TEXT
  VALUE

000134 6A24           00256     CLRF    ENABLE_COUNT_17mS, 0
000136 6825           00257     SETF    SERVO_ENDED_COUNT, 0
000138 0012           00258     RETURN
                      00259 
00013A                00260 END_SERVO
00013A 0012           00261     RETURN
                      00262  
                      00263     
                      00264 ;========== RSI AUX ================
00013C                00265 ENABLE_INTERRUTS
00013C 8EF2           00266     BSF     INTCON, GIE, 0          ; Enable interrupts
00013E 8CF2           00267     BSF     INTCON, PEIE, 0         ; Enable interrupts
000140 0012           00268     RETURN
                      00269     
000142                00270 DISABLE_INTERRUPTS
000142 9EF2           00271     BCF     INTCON, GIE, 0          ; Disable interrupts
000144 9CF2           00272     BCF     INTCON, PEIE, 0         ; Disable interrupts
000146 0012           00273     RETURN
                      00274     
                      00275 ;-=-=-=-=-=-=-=-=-=-=-=-=-=-=-=-=-=-=-=-=-=-=-=-=-=-=-=-=-=-=-=-=-=-=-=-=-=-=-=-;
                      00276 ; -----------------------  CONFIGURATIONS  -------------------------------------;
                      00277 ;-=-=-=-=-=-=-=-=-=-=-=-=-=-=-=-=-=-=-=-=-=-=-=-=-=-=-=-=-=-=-=-=-=-=-=-=-=-=-=-;
000148                00278 CONFIG_PORTS 
                      00279     ; INPUTS
000148 8093           00280     BSF     TRISB, 0, 0     ; Duration[0]
00014A 8293           00281     BSF     TRISB, 1, 0     ; Duration[1]
00014C 8493           00282     BSF     TRISB, 2, 0     ; Note[0]
00014E 8693           00283     BSF     TRISB, 3, 0     ; Note[1]
000150 8893           00284     BSF     TRISB, 4, 0     ; Note[2]
000152 8A93           00285     BSF     TRISB, 5, 0     ; Note[3]
                      00286     
000154 8C94           00287     BSF     TRISC, 6, 0     ; NewNote
000156 8E94           00288     BSF     TRISC, 7, 0     ; StartGame
000158 8A94           00289     BSF     TRISC, 5, 0     ; Echo
                      00290     
                      00291     ; OUTPUTS
00015A 9692           00292     BCF     TRISA, 3, 0     ; AnswerIncorrect
00015C 9892           00293     BCF     TRISA, 4, 0     ; AnswerCorrect
00015E 9A92           00294     BCF     TRISA, 5, 0     ; Ack
                      00295     
000160 9094           00296     BCF     TRISC, 0, 0     ; GameScore
000162 9294           00297     BCF     TRISC, 1, 0     ; Length[1]
000164 9494           00298     BCF     TRISC, 2, 0     ; Length[0]
000166 9694           00299     BCF     TRISC, 3, 0     ; Trigger
000168 9894           00300     BCF     TRISC, 4, 0     ; Speaker
                      00301 
00016A 6A95           00302     CLRF    TRISD, 0        ; CurrentNote
                      00303     
                      00304     ; Inicialitzar a 0 tots els outputs
00016C 9689           00305     BCF     LATA, 3, 0
00016E 9889           00306     BCF     LATA, 4, 0
000170 9A89           00307     BCF     LATA, 5, 0
000172 908B           00308     BCF     LATC, 0, 0
MPASM 5.86                          MAIN.ASM   11-26-2024  14:22:36         PAGE  7


LOC  OBJECT CODE     LINE SOURCE TEXT
  VALUE

000174 928B           00309     BCF     LATC, 1, 0
000176 948B           00310     BCF     LATC, 2, 0
000178 968B           00311     BCF     LATC, 3, 0
00017A 988B           00312     BCF     LATC, 4, 0
00017C 688C           00313     SETF    LATD, 0
00017E 0012           00314     RETURN
                      00315     
000180                00316 CONFIG_INTERRUPTS
000180 9ED0           00317     BCF     RCON, IPEN, 0           ; Disable priority
000182 8EF2           00318     BSF     INTCON, GIE, 0          ; Enable interrupts
000184 8CF2           00319     BSF     INTCON, PEIE, 0         ; Enable interrupts
000186 8AF2           00320     BSF     INTCON, TMR0IE, 0       ; Enable interrupt T0
000188 8EF1           00321     BSF     INTCON2, RBPU, 0        ; Pull ups disabled
00018A 0012           00322     RETURN
                      00323 
00018C                00324 CONFIG_TIMER0
00018C 9ED5           00325     BCF     T0CON, TMR0ON, 0        ; Disable Timer0  
00018E 9CD5           00326     BCF     T0CON, T08BIT, 0        ; Timer0 16 bit counter
000190 9AD5           00327     BCF     T0CON, T0CS, 0
000192 98D5           00328     BCF     T0CON, T0SE, 0
000194 86D5           00329     BSF     T0CON, PSA, 0           ; Disable prescaler
000196 EC?? F???      00330     CALL    RESET_TIMER0
00019A EC?? F???      00331     CALL    ENABLE_TIMER0           ; Enable Timer0
00019E 0012           00332     RETURN
                      00333  
                      00334     
                      00335 ;-=-=-=-=-=-=-=-=-=-=-=-=-=-=-=-=-=-=-=-=-=-=-=-=-=-=-=-=-=-=-=-=-=-=-=-=-=-=-=-;
                      00336 ;------------------------------     TIMER0    ----------------------------------;
                      00337 ;-=-=-=-=-=-=-=-=-=-=-=-=-=-=-=-=-=-=-=-=-=-=-=-=-=-=-=-=-=-=-=-=-=-=-=-=-=-=-=-;
                      00338 ;   Fosc = 40Mhz    Tins = 4/40Mhz = 100ns
                      00339 ;   1000inst -> 100nS x 1000instr = 100uS -> carreguem 65535 - 1000
0001A0                00340 RESET_TIMER0
0001A0 0EFC           00341     MOVLW   HIGH(.64536)
0001A2 6ED7           00342     MOVWF   TMR0H, 0
0001A4 0E18           00343     MOVLW   LOW(.64536)
0001A6 6ED6           00344     MOVWF   TMR0L, 0
0001A8 0012           00345     RETURN
                      00346     
0001AA                00347 ENABLE_TIMER0
0001AA 8ED5           00348     BSF     T0CON, TMR0ON, 0
0001AC 0012           00349     RETURN
                      00350  
0001AE                00351 DISABLE_TIMER0
0001AE 9ED5           00352     BCF     T0CON, TMR0ON, 0
0001B0 0012           00353     RETURN
                      00354  
                      00355     
                      00356 ;-=-=-=-=-=-=-=-=-=-=-=-=-=-=-=-=-=-=-=-=-=-=-=-=-=-=-=-=-=-=-=-=-=-=-=-=-=-=-=-;
                      00357 ;------------------------------   SERVO     ------------------------------------;
                      00358 ;-=-=-=-=-=-=-=-=-=-=-=-=-=-=-=-=-=-=-=-=-=-=-=-=-=-=-=-=-=-=-=-=-=-=-=-=-=-=-=-;  
0001B2                00359 HANDLE_SERVO
0001B2 A025           00360     BTFSS   SERVO_ENDED_COUNT, 0, 0
0001B4 0012           00361     RETURN
MPASM 5.86                          MAIN.ASM   11-26-2024  14:22:36         PAGE  8


LOC  OBJECT CODE     LINE SOURCE TEXT
  VALUE

                      00362     
0001B6 808B           00363     BSF     LATC, 0, 0
0001B8 EC?? F???      00364     CALL    WAIT_500uS
0001BC EC?? F???      00365     CALL    WAIT_SERVO_UP
                      00366     
0001C0 908B           00367     BCF     LATC, 0, 0
0001C2 EC?? F???      00368     CALL    WAIT_SERVO_DOWN
                      00369     
0001C6 6824           00370     SETF    ENABLE_COUNT_17mS, 0
0001C8 6A25           00371     CLRF    SERVO_ENDED_COUNT, 0
                      00372     
0001CA 0012           00373     RETURN
                      00374     
                      00375 ;-=-=-=-=-=-=-=-=-=-=-=-=-=-=-=-=-=-=-=-=-=-=-=-=-=-=-=-=-=-=-=-=-=-=-=-=-=-=-=-;
                      00376 ;------------------------------   SPEAKER     ----------------------------------;
                      00377 ;-=-=-=-=-=-=-=-=-=-=-=-=-=-=-=-=-=-=-=-=-=-=-=-=-=-=-=-=-=-=-=-=-=-=-=-=-=-=-=-;    
0001CC                00378 SET_DO
0001CC 0E13           00379     MOVLW   .19                  ; Mig període de DO (19 unitats de 100 µs)
0001CE 6E27           00380     MOVWF   NOTE_PERIOD, 0
0001D0 682C           00381     SETF    ENABLE_SPEAKER, 0
0001D2 0012           00382     RETURN
                      00383 
0001D4                00384 SET_RE
0001D4 0E11           00385     MOVLW   .17                  ; Mig període de RE (17 unitats de 100 µs)
0001D6 6E27           00386     MOVWF   NOTE_PERIOD, 0
0001D8 682C           00387     SETF    ENABLE_SPEAKER, 0
0001DA 0012           00388     RETURN
                      00389 
0001DC                00390 SET_MI
0001DC 0E0F           00391     MOVLW   .15                  ; Mig període de MI (15 unitats de 100 µs)
0001DE 6E27           00392     MOVWF   NOTE_PERIOD, 0
0001E0 682C           00393     SETF    ENABLE_SPEAKER, 0
0001E2 0012           00394     RETURN
                      00395 
0001E4                00396 SET_FA
0001E4 0E0E           00397     MOVLW   .14                  ; Mig període de FA (14 unitats de 100 µs)
0001E6 6E27           00398     MOVWF   NOTE_PERIOD, 0
0001E8 682C           00399     SETF    ENABLE_SPEAKER, 0
0001EA 0012           00400     RETURN
                      00401 
0001EC                00402 SET_SOL
0001EC 0E0C           00403     MOVLW   .12                  ; Mig període de SOL (12 unitats de 100 µs)
0001EE 6E27           00404     MOVWF   NOTE_PERIOD, 0
0001F0 682C           00405     SETF    ENABLE_SPEAKER, 0
0001F2 0012           00406     RETURN
                      00407 
0001F4                00408 SET_LA
0001F4 0E0B           00409     MOVLW   .11                  ; Mig període de LA (11 unitats de 100 µs)
0001F6 6E27           00410     MOVWF   NOTE_PERIOD, 0
0001F8 682C           00411     SETF    ENABLE_SPEAKER, 0
0001FA 0012           00412     RETURN
                      00413 
0001FC                00414 SET_SI
MPASM 5.86                          MAIN.ASM   11-26-2024  14:22:36         PAGE  9


LOC  OBJECT CODE     LINE SOURCE TEXT
  VALUE

0001FC 0E0A           00415     MOVLW   .10                  ; Mig període de SI (10 unitats de 100 µs)
0001FE 6E27           00416     MOVWF   NOTE_PERIOD, 0
000200 682C           00417     SETF    ENABLE_SPEAKER, 0
000202 0012           00418     RETURN
                      00419 
                      00420 
000204                00421 PROCESS_TIME_TO_SUBTRACT_SERVO
000204 6AF7           00422     CLRF    TBLPTRH, 0
000206 0E39           00423     MOVLW   0x39
000208 6EF6           00424     MOVWF   TBLPTRL, 0
                      00425     
00020A 5006           00426     MOVF    N_NOTES, 0
00020C 26F6           00427     ADDWF   TBLPTRL, F, 0
                      00428     
00020E 0008           00429     TBLRD*
                      00430     
000210 CFF5 F022      00431     MOVFF   TABLAT, TIME_TO_SUBTRACT_SERVO
000214 0012           00432     RETURN
                      00433  
                      00434 ;-=-=-=-=-=-=-=-=-=-=-=-=-=-=-=-=-=-=-=-=-=-=-=-=-=-=-=-=-=-=-=-=-=-=-=-=-=-=-=-;
                      00435 ;--------------------     SAVE INFO RAM     ------------------------------------;
                      00436 ;-=-=-=-=-=-=-=-=-=-=-=-=-=-=-=-=-=-=-=-=-=-=-=-=-=-=-=-=-=-=-=-=-=-=-=-=-=-=-=-;
000216                00437 HANDLE_NEW_NOTE
                      00438     ; Inici del punter de la RAM a 0x0100
                      00439     ; 1byte a la RAM -> [X, X, Note3, Note 2, Note1 , Note0, Duration1, Duration0]
000216 9A89           00440     BCF     LATA, 5, 0               ; Ack = 0
                      00441 
000218 BC82           00442     BTFSC   PORTC, 6, 0              ; Comprova si NewNote = 0
00021A 0012           00443     RETURN                           ; Si no hi ha nota nova, surt
                      00444     
00021C 5081           00445     MOVF    PORTB, W, 0              ; Llegeix el valor de PORTB
00021E 0B3F           00446     ANDLW   b'00111111'              ; Mask dels 6lsb
                      00447     
000220 6EEE           00448     MOVWF   POSTINC0, 0              ; Desa a la RAM i incrementa el punter
                      00449     
000222 2A06           00450     INCF    N_NOTES, F, 0            ; Incrementa el nombre de notes guardades
                      00451     
000224 8A89           00452     BSF     LATA, 5, 0               ; Ack = 1
                      00453     
000226 EC?? F???      00454     CALL    WAIT_1mS
                      00455     
                      00456     
00022A 0012           00457     RETURN
                      00458 
                      00459 ;-=-=-=-=-=-=-=-=-=-=-=-=-=-=-=-=-=-=-=-=-=-=-=-=-=-=-=-=-=-=-=-=-=-=-=-=-=-=-=-;
                      00460 ;-----------------     SHOW 7SEG AND LENGTH LEDS   -----------------------------;
                      00461 ;-=-=-=-=-=-=-=-=-=-=-=-=-=-=-=-=-=-=-=-=-=-=-=-=-=-=-=-=-=-=-=-=-=-=-=-=-=-=-=-;    
00022C                00462 SHOW_RAM_INFO       ; Cal posar el punter a l'@ on es vol mostrar la info
                      00463     ;   [X, X, NOTE3, NOTE2, NOTE1, NOTE0, DURATION1, DURATION0]  
00022C 50EF           00464     MOVF    INDF0, W, 0                     ; INDF0 -> W
00022E 6E04           00465     MOVWF   RAM_VALUE_AUX1, 0               ; W -> RAM_VALUE_AUX1
000230 6E05           00466     MOVWF   RAM_VALUE_AUX2, 0               ; W -> RAM_VALUE_AUX2
                      00467     
MPASM 5.86                          MAIN.ASM   11-26-2024  14:22:36         PAGE 10


LOC  OBJECT CODE     LINE SOURCE TEXT
  VALUE

                      00468 
                      00469     ; Extreure CurrentNote[7..0]
000232 0B3C           00470     ANDLW   b'00111100'                     ; Fem mask de 00111100 per extraure Note
000234 4004           00471     RRNCF   RAM_VALUE_AUX1, W, 0            ; Rotar 1 bit a la dreta
000236 6E04           00472     MOVWF   RAM_VALUE_AUX1, 0               ; W -> RAM_VALUE_AUX1
000238 4004           00473     RRNCF   RAM_VALUE_AUX1, W, 0            ; Rotar 1 bit a la dreta
00023A 6E01           00474     MOVWF   CURRENT_NOTE, 0                 ; W -> CURRENT_NOTE
00023C EC?? F???      00475     CALL    SHOW_CURRENT_NOTE_7SEG          ; Mostra CurrentNote[7..0]
000240 6E83           00476     MOVWF   PORTD, 0
                      00477     
                      00478     ; Extreure Length[1..0]
000242 5005           00479     MOVF    RAM_VALUE_AUX2, W, 0            ; RAM_VALUE -> W
000244 0B03           00480     ANDLW   b'00000011'                     ; Fem mask de 00000011 per extraure Duration 
000246 6E03           00481     MOVWF   LENGTH, 0
000248 EC?? F???      00482     CALL    SHOW_LENGTH_LEDS                ; Mostra Length[1..0]
                      00483     
00024C 0012           00484     RETURN
                      00485 
00024E                00486 SHOW_CURRENT_NOTE_7SEG
                      00487     ; [0, 0, 0, 0, NOTE3, NOTE2, NOTE1, NOTE0]
00024E 0E0F           00488     MOVLW   b'00001111'            ; Màscara per extreure els 4 LSB
000250 1401           00489     ANDWF   CURRENT_NOTE, W
000252 6E01           00490     MOVWF   CURRENT_NOTE, 0
                      00491 
                      00492     ; Comparar amb 0
000254 0E00           00493     MOVLW   0x00                 ; Carrega 0 a WREG
000256 5C01           00494     SUBWF   CURRENT_NOTE, W, 0   ; W = CURRENT_NOTE - WREG
000258 B4D8           00495     BTFSC   STATUS, Z            ; Si Z (zero) és 1, CURRENT_NOTE és 0
00025A EF?? F???      00496     GOTO    DISPLAY_0            ; Salta a la rutina per mostrar 0
                      00497 
                      00498     ; Comparar amb 1
00025E 0E01           00499     MOVLW   0x01
000260 5C01           00500     SUBWF   CURRENT_NOTE, W, 0
000262 B4D8           00501     BTFSC   STATUS, Z, 0
000264 EF?? F???      00502     GOTO    DISPLAY_1
                      00503 
                      00504     ; Comparar amb 2
000268 0E02           00505     MOVLW   0x02
00026A 5C01           00506     SUBWF   CURRENT_NOTE, W, 0
00026C B4D8           00507     BTFSC   STATUS, Z, 0
00026E EF?? F???      00508     GOTO    DISPLAY_2
                      00509     
                      00510     ; Comparar amb 3
000272 0E03           00511     MOVLW   0x03
000274 5C01           00512     SUBWF   CURRENT_NOTE, W, 0
000276 B4D8           00513     BTFSC   STATUS, Z, 0
000278 EF?? F???      00514     GOTO    DISPLAY_3
                      00515 
                      00516     ; Comparar amb 4
00027C 0E04           00517     MOVLW   0x04
00027E 5C01           00518     SUBWF   CURRENT_NOTE, W, 0
000280 B4D8           00519     BTFSC   STATUS, Z, 0
000282 EF?? F???      00520     GOTO    DISPLAY_4
MPASM 5.86                          MAIN.ASM   11-26-2024  14:22:36         PAGE 11


LOC  OBJECT CODE     LINE SOURCE TEXT
  VALUE

                      00521 
                      00522     ; Comparar amb 5
000286 0E05           00523     MOVLW   0x05
000288 5C01           00524     SUBWF   CURRENT_NOTE, W, 0
00028A B4D8           00525     BTFSC   STATUS, Z, 0
00028C EF?? F???      00526     GOTO    DISPLAY_5
                      00527 
                      00528     ; Comparar amb 6
000290 0E06           00529     MOVLW   0x06
000292 5C01           00530     SUBWF   CURRENT_NOTE, W, 0
000294 B4D8           00531     BTFSC   STATUS, Z, 0
000296 EF?? F???      00532     GOTO    DISPLAY_6
                      00533 
00029A 0012           00534     RETURN
                      00535 
00029C                00536 DISPLAY_0
00029C 0E82           00537     MOVLW   b'10000010'          ; Patró per al número 0
00029E 6E83           00538     MOVWF   PORTD, 0
0002A0 0012           00539     RETURN
                      00540 
0002A2                00541 DISPLAY_1
0002A2 0ECF           00542     MOVLW   b'11001111'          ; Patró per al número 1
0002A4 6E83           00543     MOVWF   PORTD, 0
0002A6 0012           00544     RETURN
                      00545 
0002A8                00546 DISPLAY_2
0002A8 0E91           00547     MOVLW   b'10010001'          ; Patró per al número 2
0002AA 6E83           00548     MOVWF   PORTD, 0
0002AC 0012           00549     RETURN
                      00550 
0002AE                00551 DISPLAY_3
0002AE 0E85           00552     MOVLW   b'10000101'          ; Patró per al número 3
0002B0 6E83           00553     MOVWF   PORTD, 0
0002B2 0012           00554     RETURN
                      00555 
0002B4                00556 DISPLAY_4
0002B4 0ECC           00557     MOVLW   b'11001100'          ; Patró per al número 4
0002B6 6E83           00558     MOVWF   PORTD, 0
0002B8 0012           00559     RETURN
                      00560 
0002BA                00561 DISPLAY_5
0002BA 0EA4           00562     MOVLW   b'10100100'          ; Patró per al número 5
0002BC 6E83           00563     MOVWF   PORTD, 0
0002BE 0012           00564     RETURN
                      00565 
0002C0                00566 DISPLAY_6
0002C0 0EA0           00567     MOVLW   b'10100000'          ; Patró per al número 6
0002C2 6E83           00568     MOVWF   PORTD, 0
0002C4 0012           00569     RETURN
                      00570 
0002C6                00571 SHOW_LENGTH_LEDS
                      00572     ; [0, 0, 0, 0, 0, 0, DURATION1, DURATION0]
0002C6 B003           00573     BTFSC   LENGTH, 0, 0
MPASM 5.86                          MAIN.ASM   11-26-2024  14:22:36         PAGE 12


LOC  OBJECT CODE     LINE SOURCE TEXT
  VALUE

0002C8 848B           00574     BSF     LATC, 2, 0              ; Length[0] = 1
0002CA A003           00575     BTFSS   LENGTH, 0, 0
0002CC 948B           00576     BCF     LATC,2 , 0              ; Length[0] = 0
                      00577     
0002CE B203           00578     BTFSC   LENGTH, 1, 0
0002D0 828B           00579     BSF     LATC,1 , 0              ; Length[1] = 1
0002D2 A203           00580     BTFSS   LENGTH, 1, 0
0002D4 928B           00581     BCF     LATC,1 , 0              ; Length[1] = 0
0002D6 0012           00582     RETURN
                      00583  
                      00584    
                      00585 ;-=-=-=-=-=-=-=-=-=-=-=-=-=-=-=-=-=-=-=-=-=-=-=-=-=-=-=-=-=-=-=-=-=-=-=-=-=-=-=-;
                      00586 ;----------------------     WAITS  ---------------------------------------------;
                      00587 ;-=-=-=-=-=-=-=-=-=-=-=-=-=-=-=-=-=-=-=-=-=-=-=-=-=-=-=-=-=-=-=-=-=-=-=-=-=-=-=-; 
                      00588 ; 10uS = 100instr x 100nS
0002D8                00589 WAIT_10uS                           ; 2+1+1+2 + 3x = 100instr -> x = 31         2
0002D8 0E1F           00590     MOVLW   .31                     ; Carrega 100 (nombre d'instruccions)       1       
0002DA 6E08           00591     MOVWF   COUNT_10uS, 0           ; Guarda a la variable COUNT                1
0002DC                00592 WAIT_LOOP_10uS
0002DC 2E08           00593     DECFSZ  COUNT_10uS, F, 0        ; Decrementa COUNT i salta si arriba a 0    3
0002DE EF?? F???      00594     GOTO    WAIT_LOOP_10uS          ; Continua al bucle                         0
                      00595     
0002E2 0012           00596     RETURN                          ;                                           2
                      00597 
0002E4                00598 WAIT_500uS                      ; 2
0002E4 0E32           00599     MOVLW   .50                 ; 1
0002E6 6E23           00600     MOVWF   COUNT_500uS, 0      ; 1
0002E8                00601 WAIT_LOOP_500uS
0002E8 EC?? F???      00602     CALL    WAIT_10uS           ; 10uS
0002EC 2E23           00603     DECFSZ  COUNT_500uS, F, 0   ; 3
0002EE EF?? F???      00604     GOTO    WAIT_LOOP_500uS     ; 0
                      00605     
0002F2 0012           00606     RETURN                      ; 2
                      00607     
0002F4                00608 WAIT_1mS
0002F4 0E64           00609     MOVLW   .100
0002F6 6E0F           00610     MOVWF   COUNT_1mS, 0
0002F8                00611 WAIT_LOOP_1mS
0002F8 EC?? F???      00612     CALL    WAIT_10uS
0002FC 2E0F           00613     DECFSZ  COUNT_1mS, F, 0
0002FE EF?? F???      00614     GOTO    WAIT_LOOP_1mS
                      00615     
000302 0012           00616     RETURN
                      00617     
000304                00618 WAIT_17mS
000304 0E11           00619     MOVLW   .17
000306 6E20           00620     MOVWF   COUNT_17mS, 0
000308                00621 WAIT_LOOP_17mS
000308 EC?? F???      00622     CALL    WAIT_1mS
00030C 2E20           00623     DECFSZ  COUNT_17mS, F, 0
00030E EF?? F???      00624     GOTO    WAIT_LOOP_17mS
                      00625     
000312 0012           00626     RETURN
MPASM 5.86                          MAIN.ASM   11-26-2024  14:22:36         PAGE 13


LOC  OBJECT CODE     LINE SOURCE TEXT
  VALUE

                      00627  
                      00628 
000314                00629 WAIT_SERVO_UP
000314 C02B F026      00630     MOVFF   TOTAL_CORRECT, COUNT_SERVO_2
000318                00631 WAIT_LOOP_SERVO_UP_2
000318 C022 F021      00632     MOVFF   TIME_TO_SUBTRACT_SERVO, COUNT_SERVO
00031C                00633 WAIT_LOOP_SERVO_UP
00031C EC?? F???      00634     CALL    WAIT_10uS
000320 2E21           00635     DECFSZ  COUNT_SERVO, F, 0
000322 EF?? F???      00636     GOTO    WAIT_LOOP_SERVO_UP
000326 2E26           00637     DECFSZ  COUNT_SERVO_2, F, 0
000328 EF?? F???      00638     GOTO    WAIT_LOOP_SERVO_UP_2
                      00639 
00032C 0012           00640     RETURN
                      00641     
00032E                00642 WAIT_SERVO_DOWN
00032E 502B           00643     MOVF    TOTAL_CORRECT, 0
000330 5C06           00644     SUBWF   N_NOTES, W, 0
000332 6E26           00645     MOVWF   COUNT_SERVO_2, 0
000334                00646 WAIT_LOOP_SERVO_DOWN_2
000334 C022 F021      00647     MOVFF   TIME_TO_SUBTRACT_SERVO, COUNT_SERVO
000338                00648 WAIT_LOOP_SERVO_DOWN
000338 EC?? F???      00649     CALL    WAIT_10uS
00033C 2E21           00650     DECFSZ  COUNT_SERVO, F, 0
00033E EF?? F???      00651     GOTO    WAIT_LOOP_SERVO_UP
000342 2E26           00652     DECFSZ  COUNT_SERVO_2, F, 0
000344 EF?? F???      00653     GOTO    WAIT_LOOP_SERVO_DOWN_2
                      00654 
000348 0012           00655     RETURN
                      00656  
                      00657 ;-=-=-=-=-=-=-=-=-=-=-=-=-=-=-=-=-=-=-=-=-=-=-=-=-=-=-=-=-=-=-=-=-=-=-=-=-=-=-=-;
                      00658 ;----------------------     ULTRASONS HANDLING  --------------------------------;
                      00659 ;-=-=-=-=-=-=-=-=-=-=-=-=-=-=-=-=-=-=-=-=-=-=-=-=-=-=-=-=-=-=-=-=-=-=-=-=-=-=-=-; 
00034A                00660 HANDLE_ULTRASONS
                      00661     ; Si el senyal TRIGGER_SENT ja està actiu, no tornar a enviar
00034A B029           00662     BTFSC   TRIGGER_SENT, 0                 ; Trigger enviat? 
00034C EC?? F???      00663     CALL    CHECK_ECHO_RECEIVED             ; si -> mirar echo
                      00664     
                      00665     ; Comprovar si el pin de l'eco ha tornat a 0
000350 BA82           00666     BTFSC   PORTC, 5, 0                     ; echo es 0?
000352 0012           00667     RETURN                                  ; si -> return
                      00668                                             
000354 C028 F01F      00669     MOVFF   COUNT_N_RSI_ECHO, DISTANCE      ; no -> comptar temps de echo
                      00670     
000358 6A2A           00671     CLRF    ECHO_RECEIVED, 0                ; Posa a 0 la flag de rebut
00035A 6A29           00672     CLRF    TRIGGER_SENT, 0                 ; Permet un nou senyal de trigger
00035C 6A28           00673     CLRF    COUNT_N_RSI_ECHO, 0             ; reset counter temps echo
                      00674 
00035E 868B           00675     BSF     LATC, 3, 0                      ; Activa Trigger
000360 EC?? F???      00676     CALL    WAIT_10uS                       ; Espera 10uS
000364 968B           00677     BCF     LATC, 3, 0                      ; Desactiva Trigger
                      00678     
000366 6829           00679     SETF    TRIGGER_SENT, 0                 ; Marca que s'ha enviat el trigger
MPASM 5.86                          MAIN.ASM   11-26-2024  14:22:36         PAGE 14


LOC  OBJECT CODE     LINE SOURCE TEXT
  VALUE

                      00680     
000368                00681 ECHO_STILL_NOT_RECEIVED
000368 0012           00682     RETURN
                      00683 
00036A                00684 CHECK_ECHO_RECEIVED
                      00685     ; Comprovar si el senyal ECHO_RECEIVED ha acabat
00036A A02A           00686     BTFSS   ECHO_RECEIVED, 0
00036C EF?? F???      00687     GOTO    ECHO_STILL_NOT_RECEIVED
000370 0012           00688     RETURN   
                      00689 
                      00690     
000372                00691 PROCESS_DISTANCE
                      00692     ; Inicialització
                      00693     ; 1 COUNT_N_RSI_ECHO EQUIVAL A 1,7CM
000372 0E04           00694     MOVLW   .4                 
000374 5C1F           00695     SUBWF   DISTANCE, W, 0   
000376 B4D8           00696     BTFSC   STATUS, Z, 0
000378 EF?? F???      00697     GOTO    DISTANCE_7
                      00698 
00037C 0E08           00699     MOVLW   .8
00037E 5C1F           00700     SUBWF   DISTANCE, W, 0
000380 B4D8           00701     BTFSC   STATUS, Z, 0
000382 EF?? F???      00702     GOTO    DISTANCE_14
                      00703 
000386 0E0C           00704     MOVLW   .12
000388 5C1F           00705     SUBWF   DISTANCE, W, 0
00038A B4D8           00706     BTFSC   STATUS, Z, 0
00038C EF?? F???      00707     GOTO    DISTANCE_21
                      00708     
000390 0E10           00709     MOVLW   .16
000392 5C1F           00710     SUBWF   DISTANCE, W, 0
000394 B4D8           00711     BTFSC   STATUS, Z, 0
000396 EF?? F???      00712     GOTO    DISTANCE_28
                      00713 
00039A 0E14           00714     MOVLW   .20
00039C 5C1F           00715     SUBWF   DISTANCE, W, 0
00039E B4D8           00716     BTFSC   STATUS, Z, 0
0003A0 EF?? F???      00717     GOTO    DISTANCE_35
                      00718 
0003A4 0E18           00719     MOVLW   .24
0003A6 5C1F           00720     SUBWF   DISTANCE, W, 0
0003A8 B4D8           00721     BTFSC   STATUS, Z, 0
0003AA EF?? F???      00722     GOTO    DISTANCE_42
                      00723 
0003AE 0E1A           00724     MOVLW   .26
0003B0 5C1F           00725     SUBWF   DISTANCE, W, 0
0003B2 B4D8           00726     BTFSC   STATUS, Z, 0
0003B4 EF?? F???      00727     GOTO    DISTANCE_50
                      00728     
0003B8 EF?? F???      00729     GOTO    END_PROCESS_DISTANCE
                      00730 
0003BC                00731 DISTANCE_7
0003BC EC?? F???      00732     CALL    SET_DO
MPASM 5.86                          MAIN.ASM   11-26-2024  14:22:36         PAGE 15


LOC  OBJECT CODE     LINE SOURCE TEXT
  VALUE

0003C0 0E00           00733     MOVLW   0x00
0003C2 6E02           00734     MOVWF   NOTE_LISTENED, 0
0003C4 EF?? F???      00735     GOTO    END_PROCESS_DISTANCE
                      00736 
0003C8                00737 DISTANCE_14
0003C8 EC?? F???      00738     CALL    SET_RE
0003CC 0E01           00739     MOVLW   0x01
0003CE 6E02           00740     MOVWF   NOTE_LISTENED, 0
0003D0 EF?? F???      00741     GOTO    END_PROCESS_DISTANCE
                      00742 
0003D4                00743 DISTANCE_21
0003D4 EC?? F???      00744     CALL    SET_MI
0003D8 0E02           00745     MOVLW   0x02
0003DA 6E02           00746     MOVWF   NOTE_LISTENED, 0
0003DC EF?? F???      00747     GOTO    END_PROCESS_DISTANCE
                      00748 
0003E0                00749 DISTANCE_28
0003E0 EC?? F???      00750     CALL    SET_FA
0003E4 0E03           00751     MOVLW   0x03
0003E6 6E02           00752     MOVWF   NOTE_LISTENED, 0
0003E8 EF?? F???      00753     GOTO    END_PROCESS_DISTANCE
                      00754 
0003EC                00755 DISTANCE_35
0003EC EC?? F???      00756     CALL    SET_SOL
0003F0 0E04           00757     MOVLW   0x04
0003F2 6E02           00758     MOVWF   NOTE_LISTENED, 0
0003F4 EF?? F???      00759     GOTO    END_PROCESS_DISTANCE
                      00760 
0003F8                00761 DISTANCE_42
0003F8 EC?? F???      00762     CALL    SET_LA
0003FC 0E05           00763     MOVLW   0x05
0003FE 6E02           00764     MOVWF   NOTE_LISTENED, 0
000400 EF?? F???      00765     GOTO    END_PROCESS_DISTANCE
                      00766 
000404                00767 DISTANCE_50
000404 EC?? F???      00768     CALL    SET_SI
000408 0E06           00769     MOVLW   0x06
00040A 6E02           00770     MOVWF   NOTE_LISTENED, 0
00040C EF?? F???      00771     GOTO    END_PROCESS_DISTANCE
                      00772 
000410                00773 END_PROCESS_DISTANCE
000410 0012           00774     RETURN
                      00775 
                      00776 
                      00777 ;-=-=-=-=-=-=-=-=-=-=-=-=-=-=-=-=-=-=-=-=-=-=-=-=-=-=-=-=-=-=-=-=-=-=-=-=-=-=-=-;
                      00778 ;----------------------     NOTE HANDLING  -------------------------------------;
                      00779 ;-=-=-=-=-=-=-=-=-=-=-=-=-=-=-=-=-=-=-=-=-=-=-=-=-=-=-=-=-=-=-=-=-=-=-=-=-=-=-=-; 
000412                00780 HANDLE_NOTE
000412 B00E           00781     BTFSC   FLAG_3S, 0                  ; HAN PASAT 3S?
000414 EF?? F???      00782     GOTO    PROCESS_INCORRECT_ANSWER    ; si -> incorrect answer
                      00783     
000418 A02F           00784     BTFSS   COUNT_3S_STARTED, 0, 0      ; no -> han començat a comptar els 3s?
00041A EF?? F???      00785     GOTO    START_COUNT_3S              ; no -> comença a comptar 3s
MPASM 5.86                          MAIN.ASM   11-26-2024  14:22:36         PAGE 16


LOC  OBJECT CODE     LINE SOURCE TEXT
  VALUE

                      00786                 
00041E                00787 RESUME_HANDLE_NOTE                      ; si -> segueix 
00041E B00B           00788     BTFSC   FLAG_500mS, 0               ; han pasat 500ms amb la nota correcta?
000420 EF?? F???      00789     GOTO    START_COUNT_NOTE            ; si -> comença a comptar
                      00790     
000424 5002           00791     MOVF    NOTE_LISTENED, W, 0         ; no -> mirar si estas a la nota correcta
000426 5C01           00792     SUBWF   CURRENT_NOTE, W, 0          ; CURRENT_NOTE = NOTE_LISTENED?
000428 B4D8           00793     BTFSC   STATUS, Z, 0        
00042A EF?? F???      00794     GOTO    END_HANDLE_NOTE             ; no -> end 
00042E EC?? F???      00795     CALL    RESET_COUNT_500mS           ; si -> reset al couter de 500 i comença
                      00796     
000432                00797 END_HANDLE_NOTE    
000432 0012           00798     RETURN
                      00799 
000434                00800 START_COUNT_3S 
000434 B030           00801     BTFSC   DISABLE_COUNT_3S_STARTED, 0, 0  ; counter 3s disabled?
000436 EF?? F???      00802     GOTO    RESUME_HANDLE_NOTE              ; si -> resume sense comptar 3s
                      00803     
00043A EC?? F???      00804     CALL    RESET_COUNT_3S                  ; no -> comença a comptar 3s 
00043E 682F           00805     SETF    COUNT_3S_STARTED, 0             ; indica que ha començat a comptar 3s
                      00806     
000440 EF?? F???      00807     GOTO    END_HANDLE_NOTE                 ; return
                      00808     
000444                00809 START_COUNT_NOTE
000444 6830           00810     SETF    DISABLE_COUNT_3S_STARTED, 0     ; disable count 3s
                      00811     
000446 B01C           00812     BTFSC   FLAG_COUNT_LENGTH_STARTED, 0    ; count length started?
000448 EF?? F???      00813     GOTO    CHECK_ANSWER                    ; si -> mirar answer
                      00814     
00044C 681C           00815     SETF    FLAG_COUNT_LENGTH_STARTED, 0    ; no -> començar
00044E 6A1E           00816     CLRF    ERROR_MADE, 0                   ; netejar flag error
                      00817     
000450 9889           00818     BCF     LATA, 4, 0                      ; apagar led
000452 9689           00819     BCF     LATA, 3, 0                      ; apagar led
                      00820     
000454 0E01           00821     MOVLW   .1                              ; mirar si durada es 1s
000456 5C03           00822     SUBWF   LENGTH, W, 0
000458 B4D8           00823     BTFSC   STATUS, Z, 0
00045A EF?? F???      00824     GOTO    SET_COUNT_DURATION_1
                      00825     
00045E 0E02           00826     MOVLW   .2                              ; mirar si durada es 2s
000460 5C03           00827     SUBWF   LENGTH, W, 0
000462 B4D8           00828     BTFSC   STATUS, Z, 0
000464 EF?? F???      00829     GOTO    SET_COUNT_DURATION_2
                      00830     
000468 0E03           00831     MOVLW   .3                              ; mirar si durada es 3s
00046A 5C03           00832     SUBWF   LENGTH, W, 0
00046C B4D8           00833     BTFSC   STATUS, Z, 0
00046E EF?? F???      00834     GOTO    SET_COUNT_DURATION_3
                      00835     
000472 EF?? F???      00836     GOTO    END_HANDLE_NOTE                 ; return
                      00837     
000476                00838 SET_COUNT_DURATION_1    ; 1S
MPASM 5.86                          MAIN.ASM   11-26-2024  14:22:36         PAGE 17


LOC  OBJECT CODE     LINE SOURCE TEXT
  VALUE

000476 0E27           00839     MOVLW   HIGH(.10000) 
000478 6E1B           00840     MOVWF   COUNT_LENGTH_HIGH, 0
00047A 0E10           00841     MOVLW   LOW(.10000)
00047C 6E1A           00842     MOVWF   COUNT_LENGTH_LOW, 0
00047E EF?? F???      00843     GOTO    END_HANDLE_NOTE
                      00844     
000482                00845 SET_COUNT_DURATION_2    ; 2S
000482 0E4E           00846     MOVLW   HIGH(.20000)
000484 6E1B           00847     MOVWF   COUNT_LENGTH_HIGH, 0
000486 0E20           00848     MOVLW   LOW(.20000)
000488 6E1A           00849     MOVWF   COUNT_LENGTH_LOW, 0
00048A EF?? F???      00850     GOTO    END_HANDLE_NOTE
                      00851     
00048E                00852 SET_COUNT_DURATION_3    ; 3S
00048E 0E75           00853     MOVLW   HIGH(.30000)
000490 6E1B           00854     MOVWF   COUNT_LENGTH_HIGH, 0
000492 0E30           00855     MOVLW   LOW(.30000)
000494 6E1A           00856     MOVWF   COUNT_LENGTH_LOW, 0
000496 EF?? F???      00857     GOTO    END_HANDLE_NOTE
                      00858 
00049A                00859 CHECK_ANSWER
00049A 5002           00860     MOVF    NOTE_LISTENED, W, 0
00049C 5C01           00861     SUBWF   CURRENT_NOTE, W, 0      
00049E A4D8           00862     BTFSS   STATUS, Z, 0            ; CURRENT_NOTE = NOTE_LISTENED?
0004A0 681E           00863     SETF    ERROR_MADE, 0           ; no -> flag error = 1
                      00864 
0004A2 EF?? F???      00865     GOTO    END_HANDLE_NOTE         ; si -> return
                      00866     
0004A6                00867 RESET_COUNT_500mS
0004A6 0E13           00868     MOVLW   HIGH(.5000)
0004A8 6E0A           00869     MOVWF   COUNT_500mS_HIGH, 0
                      00870     
0004AA 0E88           00871     MOVLW   LOW(.5000)
0004AC 6E09           00872     MOVWF   COUNT_500mS_LOW, 0
                      00873     
0004AE 6A0B           00874     CLRF    FLAG_500mS, 0 
0004B0 0012           00875     RETURN
                      00876     
0004B2                00877 RESET_COUNT_3S
0004B2 0E75           00878     MOVLW   HIGH(.30000)
0004B4 6E0D           00879     MOVWF   COUNT_3S_HIGH, 0
                      00880     
0004B6 0E30           00881     MOVLW   LOW(.30000)
0004B8 6E0C           00882     MOVWF   COUNT_3S_LOW, 0
                      00883     
0004BA 6A0E           00884     CLRF    FLAG_3S, 0 
0004BC 0012           00885     RETURN
                      00886     
                      00887     
                      00888 ;-=-=-=-=-=-=-=-=-=-=-=-=-=-=-=-=-=-=-=-=-=-=-=-=-=-=-=-=-=-=-=-=-=-=-=-=-=-=-=-;
                      00889 ;----------------------     ANSWER HANDLING  -----------------------------------;
                      00890 ;-=-=-=-=-=-=-=-=-=-=-=-=-=-=-=-=-=-=-=-=-=-=-=-=-=-=-=-=-=-=-=-=-=-=-=-=-=-=-=-;   
0004BE                00891 HANDLE_ANSWER
MPASM 5.86                          MAIN.ASM   11-26-2024  14:22:36         PAGE 18


LOC  OBJECT CODE     LINE SOURCE TEXT
  VALUE

0004BE A01D           00892     BTFSS   FLAG_COUNT_LENGTH_FINISHED, 0   ; counter length acabat?
0004C0 0012           00893     RETURN                                  ; no -> return
                      00894         
0004C2 A01E           00895     BTFSS   ERROR_MADE, 0                   ; si -> hi ha hagut error?
0004C4 EF?? F???      00896     GOTO    PROCESS_CORRECT_ANSWER          ; no -> validar correcte 
                      00897     
0004C8 EF?? F???      00898     GOTO    PROCESS_INCORRECT_ANSWER        ; si -> validar incorrecte
                      00899   
0004CC                00900 END_HANDLE_ANSWER
0004CC 6A1E           00901     CLRF    ERROR_MADE, 0
0004CE 6A1C           00902     CLRF    FLAG_COUNT_LENGTH_STARTED, 0
0004D0 6A1D           00903     CLRF    FLAG_COUNT_LENGTH_FINISHED, 0
                      00904     
0004D2 EC?? F???      00905     CALL    RESET_COUNT_500mS
0004D6 EC?? F???      00906     CALL    RESET_COUNT_3S
                      00907     
0004DA 2A07           00908     INCF    N_NOTES_REPRODUIDES, F, 0
                      00909         
0004DC 2AE9           00910     INCF    FSR0L, F, 0                 ; Increment al punter de la RAM
0004DE 0012           00911     RETURN
                      00912     
                      00913 
0004E0                00914 PROCESS_CORRECT_ANSWER
0004E0 8889           00915     BSF     LATA, 4, 0
0004E2 9689           00916     BCF     LATA, 3, 0
0004E4 2A2B           00917     INCF    TOTAL_CORRECT, F, 0
0004E6 EF?? F???      00918     GOTO    END_HANDLE_ANSWER
                      00919     
0004EA                00920 PROCESS_INCORRECT_ANSWER  
0004EA 9889           00921     BCF     LATA, 4, 0
0004EC 8689           00922     BSF     LATA, 3, 0
0004EE EF?? F???      00923     GOTO    END_HANDLE_ANSWER
                      00924 
                      00925     
                      00926 ;-=-=-=-=-=-=-=-=-=-=-=-=-=-=-=-=-=-=-=-=-=-=-=-=-=-=-=-=-=-=-=-=-=-=-=-=-=-=-=-;
                      00927 ;----------------------------     INITS     ------------------------------------;
                      00928 ;-=-=-=-=-=-=-=-=-=-=-=-=-=-=-=-=-=-=-=-=-=-=-=-=-=-=-=-=-=-=-=-=-=-=-=-=-=-=-=-;
0004F2                00929 INIT_VARS_MAIN
0004F2 6A06           00930     CLRF    N_NOTES, 0          ; Init N_NOTES a 0
0004F4 6A01           00931     CLRF    CURRENT_NOTE, 0     ; Init CurrentNote a 0
0004F6 0012           00932     RETURN
                      00933     
0004F8                00934 INIT_VARS_START_GAME
0004F8 6A07           00935     CLRF    N_NOTES_REPRODUIDES, 0
0004FA 6A27           00936     CLRF    NOTE_PERIOD, 0
0004FC 681F           00937     SETF    DISTANCE, 0
0004FE 6A2D           00938     CLRF    COUNT_SPEAKER_TIMES, 0
000500 6A2E           00939     CLRF    SPEAKER_LEVEL, 0
000502 6A29           00940     CLRF    TRIGGER_SENT, 0
000504 6A2A           00941     CLRF    ECHO_RECEIVED, 0
000506 6A2C           00942     CLRF    ENABLE_SPEAKER, 0
000508 6802           00943     SETF    NOTE_LISTENED, 0
00050A 6A1C           00944     CLRF    FLAG_COUNT_LENGTH_STARTED, 0
MPASM 5.86                          MAIN.ASM   11-26-2024  14:22:36         PAGE 19


LOC  OBJECT CODE     LINE SOURCE TEXT
  VALUE

00050C 6A1D           00945     CLRF    FLAG_COUNT_LENGTH_FINISHED, 0
00050E 6A1E           00946     CLRF    ERROR_MADE, 0
000510 6A2B           00947     CLRF    TOTAL_CORRECT, 0
000512 6A24           00948     CLRF    ENABLE_COUNT_17mS, 0
000514 6825           00949     SETF    SERVO_ENDED_COUNT, 0
000516 6A22           00950     CLRF    TIME_TO_SUBTRACT_SERVO, 0
000518 6A30           00951     CLRF    DISABLE_COUNT_3S_STARTED, 0
00051A 6A2F           00952     CLRF    COUNT_3S_STARTED, 0
00051C EC?? F???      00953     CALL    RESET_COUNT_500mS
000520 EC?? F???      00954     CALL    RESET_COUNT_3S
                      00955     
000524 0012           00956     RETURN
                      00957     
000526                00958 INIT_RAM
                      00959     ; INIT PUNTER RAM -> 0x0100
000526 0E01           00960     MOVLW   0x01
000528 6EEA           00961     MOVWF   FSR0H, 0
00052A 0E00           00962     MOVLW   0x00
00052C 6EE9           00963     MOVWF   FSR0L, 0
                      00964     
00052E 0012           00965     RETURN
                      00966     
000530                00967 INIT_SERVO
000530 808B           00968     BSF     LATC, 0, 0
000532 EC?? F???      00969     CALL    WAIT_500uS
                      00970     
000536 908B           00971     BCF     LATC, 0, 0
000538 EC?? F???      00972     CALL    WAIT_17mS
00053C EC?? F???      00973     CALL    WAIT_500uS
000540 EC?? F???      00974     CALL    WAIT_1mS
000544 EC?? F???      00975     CALL    WAIT_1mS
                      00976         
000548 0012           00977     RETURN
                      00978     
                      00979 ;-=-=-=-=-=-=-=-=-=-=-=-=-=-=-=-=-=-=-=-=-=-=-=-=-=-=-=-=-=-=-=-=-=-=-=-=-=-=-=-;
                      00980 ;----------------------     START GAME  ----------------------------------------;
                      00981 ;-=-=-=-=-=-=-=-=-=-=-=-=-=-=-=-=-=-=-=-=-=-=-=-=-=-=-=-=-=-=-=-=-=-=-=-=-=-=-=-; 
00054A                00982 START_GAME
00054A 5007           00983     MOVF    N_NOTES_REPRODUIDES, W, 0    ; Carrega el nombre de notes reproduïdes
00054C 5C06           00984     SUBWF   N_NOTES, W, 0                ; Compara amb el total de notes
00054E B4D8           00985     BTFSC   STATUS, Z, 0                 ; Si són iguals, final del joc
000550 EF?? F???      00986     GOTO    GAME_OVER
                      00987 
000554 EC?? F???      00988     CALL    SHOW_RAM_INFO
000558 EC?? F???      00989     CALL    HANDLE_ULTRASONS
00055C EC?? F???      00990     CALL    PROCESS_DISTANCE
000560 EC?? F???      00991     CALL    HANDLE_NOTE
000564 EC?? F???      00992     CALL    HANDLE_ANSWER 
000568                00993 RESUME_GAME
000568 0012           00994     RETURN
                      00995  
                      00996 ;-=-=-=-=-=-=-=-=-=-=-=-=-=-=-=-=-=-=-=-=-=-=-=-=-=-=-=-=-=-=-=-=-=-=-=-=-=-=-=-;
                      00997 ;----------------------     START GAME LOOP    ---------------------------------;
MPASM 5.86                          MAIN.ASM   11-26-2024  14:22:36         PAGE 20


LOC  OBJECT CODE     LINE SOURCE TEXT
  VALUE

                      00998 ;-=-=-=-=-=-=-=-=-=-=-=-=-=-=-=-=-=-=-=-=-=-=-=-=-=-=-=-=-=-=-=-=-=-=-=-=-=-=-=-;    
00056A                00999 HANDLE_START_GAME
00056A AE82           01000     BTFSS   PORTC, 7, 0                     ; Comprova si StartGame = 1
00056C 0012           01001     RETURN
                      01002         
00056E EC?? F???      01003     CALL    INIT_VARS_START_GAME            ; init de totes les vars
000572 EC?? F???      01004     CALL    INIT_RAM                        ; init punters ram
000576 EC?? F???      01005     CALL    PROCESS_TIME_TO_SUBTRACT_SERVO  ; init valor flash
                      01006 
00057A                01007 START_GAME_LOOP                             ; Main Loop un cop començat Joc
                      01008     
00057A EC?? F???      01009     CALL    HANDLE_SERVO                    ; Posa el servo a 0 graus
00057E EC?? F???      01010     CALL    START_GAME                      ; Processa el joc
                      01011     
000582 EF?? F???      01012     GOTO    START_GAME_LOOP
                      01013 
                      01014 
                      01015 ;-=-=-=-=-=-=-=-=-=-=-=-=-=-=-=-=-=-=-=-=-=-=-=-=-=-=-=-=-=-=-=-=-=-=-=-=-=-=-=-;
                      01016 ;----------------------     GAME OVER    ---------------------------------------;
                      01017 ;-=-=-=-=-=-=-=-=-=-=-=-=-=-=-=-=-=-=-=-=-=-=-=-=-=-=-=-=-=-=-=-=-=-=-=-=-=-=-=-;      
000586                01018 GAME_OVER
000586 EC?? F???      01019     CALL    HANDLE_SERVO
00058A 6A2C           01020     CLRF    ENABLE_SPEAKER, 0
00058C 0EFD           01021     MOVLW   b'11111101'
00058E 6E83           01022     MOVWF   PORTD, 0
000590 928B           01023     BCF     LATC, 1, 0
000592 948B           01024     BCF     LATC, 2, 0
000594 EF?? F???      01025     GOTO    GAME_OVER      
                      01026 
                      01027 ;-=-=-=-=-=-=-=-=-=-=-=-=-=-=-=-=-=-=-=-=-=-=-=-=-=-=-=-=-=-=-=-=-=-=-=-=-=-=-=-;
                      01028 ; ----------------------------   MAIN    ---------------------------------------;
                      01029 ;-=-=-=-=-=-=-=-=-=-=-=-=-=-=-=-=-=-=-=-=-=-=-=-=-=-=-=-=-=-=-=-=-=-=-=-=-=-=-=-;
000598                01030 MAIN
000598 EC?? F???      01031     CALL    CONFIG_PORTS
00059C EC?? F???      01032     CALL    CONFIG_INTERRUPTS
0005A0 EC?? F???      01033     CALL    CONFIG_TIMER0
                      01034     
0005A4 EC?? F???      01035     CALL    INIT_VARS_MAIN
0005A8 EC?? F???      01036     CALL    INIT_RAM
                      01037     
0005AC                01038 LOOP
0005AC EC?? F???      01039     CALL    HANDLE_NEW_NOTE
0005B0 EC?? F???      01040     CALL    INIT_SERVO
0005B4 EC?? F???      01041     CALL    HANDLE_START_GAME
                      01042     
0005B8 EF?? F???      01043     GOTO LOOP
                      01044     
                      01045     END
MPASM 5.86                          MAIN.ASM   11-26-2024  14:22:36         PAGE 21


SYMBOL TABLE
  LABEL                             VALUE 

A                                 00000000
ABDEN                             00000000
ABDOVF                            00000007
ACCESS                            00000000
ACKDT                             00000005
ACKEN                             00000004
ACKSTAT                           00000006
ACQT0                             00000003
ACQT1                             00000004
ACQT2                             00000005
ADCON0                            00000FC2
ADCON1                            00000FC1
ADCON2                            00000FC0
ADCS0                             00000000
ADCS1                             00000001
ADCS2                             00000002
ADDEN                             00000003
ADEN                              00000003
ADFM                              00000007
ADIE                              00000006
ADIF                              00000006
ADIP                              00000006
ADMSK1                            00000001
ADMSK2                            00000002
ADMSK3                            00000003
ADMSK4                            00000004
ADMSK5                            00000005
ADON                              00000000
ADRES                             00000FC3
ADRESH                            00000FC4
ADRESL                            00000FC3
AN0                               00000000
AN1                               00000001
AN10                              00000001
AN11                              00000004
AN12                              00000000
AN2                               00000002
AN3                               00000003
AN4                               00000005
AN5                               00000000
AN6                               00000001
AN7                               00000002
AN8                               00000002
AN9                               00000003
BANKED                            00000001
BAUDCON                           00000FB8
BAUDCTL                           00000FB8
BCLIE                             00000003
BCLIF                             00000003
BCLIP                             00000003
BF                                00000000
BGST                              00000005
BOR                               00000000
MPASM 5.86                          MAIN.ASM   11-26-2024  14:22:36         PAGE 22


SYMBOL TABLE
  LABEL                             VALUE 

BRG16                             00000003
BRGH                              00000002
BSR                               00000FE0
C                                 00000000
C1INV                             00000004
C1N                               00000000
C1OUT_CMCON                       00000006
C1OUT_PORTA                       00000004
C1P                               00000003
C2INV                             00000005
C2N                               00000001
C2OUT_CMCON                       00000007
C2OUT_PORTA                       00000005
C2P                               00000002
CCP1                              00000002
CCP1CON                           00000FBD
CCP1IE                            00000002
CCP1IF                            00000002
CCP1IP                            00000002
CCP1M0                            00000000
CCP1M1                            00000001
CCP1M2                            00000002
CCP1M3                            00000003
CCP1X                             00000005
CCP1Y                             00000004
CCP2CON                           00000FBA
CCP2IE                            00000000
CCP2IF                            00000000
CCP2IP                            00000000
CCP2M0                            00000000
CCP2M1                            00000001
CCP2M2                            00000002
CCP2M3                            00000003
CCP2X                             00000005
CCP2Y                             00000004
CCP2_PORTB                        00000003
CCP2_PORTC                        00000001
CCPR1                             00000FBE
CCPR1H                            00000FBF
CCPR1L                            00000FBE
CCPR2                             00000FBB
CCPR2H                            00000FBC
CCPR2L                            00000FBB
CFGS                              00000006
CHANGE_SPEAKER_LEVEL              0000008E
CHECK_ANSWER                      0000049A
CHECK_ECHO_RECEIVED               0000036A
CHS0                              00000002
CHS1                              00000003
CHS2                              00000004
CHS3                              00000005
CIS                               00000003
CK                                00000006
MPASM 5.86                          MAIN.ASM   11-26-2024  14:22:36         PAGE 23


SYMBOL TABLE
  LABEL                             VALUE 

CKE                               00000006
CKP                               00000004
CLKI                              00000007
CLKO                              00000006
CM0                               00000000
CM1                               00000001
CM2                               00000002
CMCON                             00000FB4
CMIE                              00000006
CMIF                              00000006
CMIP                              00000006
CONFIG_INTERRUPTS                 00000180
CONFIG_PORTS                      00000148
CONFIG_TIMER0                     0000018C
COUNT_10uS                        00000008
COUNT_17mS                        00000020
COUNT_1mS                         0000000F
COUNT_3S_HIGH                     0000000D
COUNT_3S_LOW                      0000000C
COUNT_3S_STARTED                  0000002F
COUNT_500mS_HIGH                  0000000A
COUNT_500mS_LOW                   00000009
COUNT_500uS                       00000023
COUNT_LENGTH_HIGH                 0000001B
COUNT_LENGTH_LOW                  0000001A
COUNT_N_RSI_ECHO                  00000028
COUNT_RSI_17mS                    0000012E
COUNT_SERVO                       00000021
COUNT_SERVO_2                     00000026
COUNT_SPEAKER_TIMES               0000002D
CREN                              00000004
CS                                00000002
CSRC                              00000007
CURRENT_NOTE                      00000001
CVR0                              00000000
CVR1                              00000001
CVR2                              00000002
CVR3                              00000003
CVRCON                            00000FB5
CVREF                             00000002
CVREN                             00000007
CVROE                             00000006
CVRR                              00000005
CVRSS                             00000004
D                                 00000005
DC                                00000001
DC1B0                             00000004
DC1B1                             00000005
DC2B0                             00000004
DC2B1                             00000005
DDRA                              TRISA
DDRB                              TRISB
DDRC                              TRISC
MPASM 5.86                          MAIN.ASM   11-26-2024  14:22:36         PAGE 24


SYMBOL TABLE
  LABEL                             VALUE 

DDRD                              TRISD
DDRE                              TRISE
DISABLE_COUNT_3S_STARTED          00000030
DISABLE_INTERRUPTS                00000142
DISABLE_TIMER0                    000001AE
DISPLAY_0                         0000029C
DISPLAY_1                         000002A2
DISPLAY_2                         000002A8
DISPLAY_3                         000002AE
DISPLAY_4                         000002B4
DISPLAY_5                         000002BA
DISPLAY_6                         000002C0
DISTANCE                          0000001F
DISTANCE_14                       000003C8
DISTANCE_21                       000003D4
DISTANCE_28                       000003E0
DISTANCE_35                       000003EC
DISTANCE_42                       000003F8
DISTANCE_50                       00000404
DISTANCE_7                        000003BC
DONE                              00000001
D_A                               00000005
D_NOT_A                           00000005
ECCP1AS                           00000FB6
ECCP1CON                          00000FBD
ECCP1DEL                          00000FB7
ECCPAS0                           00000004
ECCPAS1                           00000005
ECCPAS2                           00000006
ECCPASE                           00000007
ECHO_RECEIVED                     0000002A
ECHO_STILL_NOT_RECEIVED           00000368
EEADR                             00000FA9
EECON1                            00000FA6
EECON2                            00000FA7
EEDATA                            00000FA8
EEIE                              00000004
EEIF                              00000004
EEIP                              00000004
EEPGD                             00000007
ENABLE_COUNT_17mS                 00000024
ENABLE_INTERRUTS                  0000013C
ENABLE_SPEAKER                    0000002C
ENABLE_TIMER0                     000001AA
END_HANDLE_ANSWER                 000004CC
END_HANDLE_NOTE                   00000432
END_PROCESS_DISTANCE              00000410
END_RSI_COUNT_3S                  000000FA
END_RSI_COUNT_500mS               000000D6
END_RSI_COUNT_LENGTH              0000011A
END_SERVO                         0000013A
ERROR_MADE                        0000001E
FAST                              00000001
MPASM 5.86                          MAIN.ASM   11-26-2024  14:22:36         PAGE 25


SYMBOL TABLE
  LABEL                             VALUE 

FERR                              00000002
FLAG_3S                           0000000E
FLAG_500mS                        0000000B
FLAG_COUNT_LENGTH_FINISHED        0000001D
FLAG_COUNT_LENGTH_STARTED         0000001C
FLT0                              00000000
FLTS                              00000002
FREE                              00000004
FSR0                              00000000
FSR0H                             00000FEA
FSR0L                             00000FE9
FSR1                              00000001
FSR1H                             00000FE2
FSR1L                             00000FE1
FSR2                              00000002
FSR2H                             00000FDA
FSR2L                             00000FD9
GAME_OVER                         00000586
GCEN                              00000007
GIE                               00000007
GIEH                              00000007
GIEL                              00000006
GIE_GIEH                          00000007
GO                                00000001
GO_DONE                           00000001
GO_NOT_DONE                       00000001
HANDLE_ANSWER                     000004BE
HANDLE_NEW_NOTE                   00000216
HANDLE_NOTE                       00000412
HANDLE_RSI_ECHO                   0000006E
HANDLE_RSI_NOTE                   000000AC
HANDLE_RSI_SERVO                  0000011C
HANDLE_RSI_SPEAKER                00000078
HANDLE_SERVO                      000001B2
HANDLE_START_GAME                 0000056A
HANDLE_ULTRASONS                  0000034A
HIGH_RSI                          0000004A
HLVDCON                           00000FD2
HLVDEN                            00000004
HLVDIE                            00000002
HLVDIF                            00000002
HLVDIN                            00000005
HLVDIP                            00000002
HLVDL0                            00000000
HLVDL1                            00000001
HLVDL2                            00000002
HLVDL3                            00000003
IBF                               00000007
IBOV                              00000005
IDLEN                             00000007
INCREMENT_COUNTER                 0000008A
INDF0                             00000FEF
INDF1                             00000FE7
MPASM 5.86                          MAIN.ASM   11-26-2024  14:22:36         PAGE 26


SYMBOL TABLE
  LABEL                             VALUE 

INDF2                             00000FDF
INIT_RAM                          00000526
INIT_SERVO                        00000530
INIT_VARS_MAIN                    000004F2
INIT_VARS_START_GAME              000004F8
INT0                              00000000
INT0E                             00000004
INT0F                             00000001
INT0IE                            00000004
INT0IF                            00000001
INT1                              00000001
INT1E                             00000003
INT1F                             00000000
INT1IE                            00000003
INT1IF                            00000000
INT1IP                            00000006
INT1P                             00000006
INT2                              00000002
INT2E                             00000004
INT2F                             00000001
INT2IE                            00000004
INT2IF                            00000001
INT2IP                            00000007
INT2P                             00000007
INTCON                            00000FF2
INTCON2                           00000FF1
INTCON3                           00000FF0
INTEDG0                           00000006
INTEDG1                           00000005
INTEDG2                           00000004
INTSRC                            00000007
IOFS                              00000002
IPEN                              00000007
IPR1                              00000F9F
IPR2                              00000FA2
IRCF0                             00000004
IRCF1                             00000005
IRCF2                             00000006
IRVST                             00000005
KBI0                              00000004
KBI1                              00000005
KBI2                              00000006
KBI3                              00000007
LATA                              00000F89
LATA0                             00000000
LATA1                             00000001
LATA2                             00000002
LATA3                             00000003
LATA4                             00000004
LATA5                             00000005
LATA6                             00000006
LATA7                             00000007
LATB                              00000F8A
MPASM 5.86                          MAIN.ASM   11-26-2024  14:22:36         PAGE 27


SYMBOL TABLE
  LABEL                             VALUE 

LATB0                             00000000
LATB1                             00000001
LATB2                             00000002
LATB3                             00000003
LATB4                             00000004
LATB5                             00000005
LATB6                             00000006
LATB7                             00000007
LATC                              00000F8B
LATC0                             00000000
LATC1                             00000001
LATC2                             00000002
LATC3                             00000003
LATC4                             00000004
LATC5                             00000005
LATC6                             00000006
LATC7                             00000007
LATD                              00000F8C
LATD0                             00000000
LATD1                             00000001
LATD2                             00000002
LATD3                             00000003
LATD4                             00000004
LATD5                             00000005
LATD6                             00000006
LATD7                             00000007
LATE                              00000F8D
LATE0                             00000000
LATE1                             00000001
LATE2                             00000002
LENGTH                            00000003
LOOP                              000005AC
LVDCON                            00000FD2
LVDEN                             00000004
LVDIE                             00000002
LVDIF                             00000002
LVDIP                             00000002
LVDL0                             00000000
LVDL1                             00000001
LVDL2                             00000002
LVDL3                             00000003
LVV0                              00000000
LVV1                              00000001
LVV2                              00000002
LVV3                              00000003
MAIN                              00000598
MCLR                              00000003
N                                 00000004
NOTE_LISTENED                     00000002
NOTE_PERIOD                       00000027
NOT_A                             00000005
NOT_ADDRESS                       00000005
NOT_BOR                           00000000
MPASM 5.86                          MAIN.ASM   11-26-2024  14:22:36         PAGE 28


SYMBOL TABLE
  LABEL                             VALUE 

NOT_CS                            00000002
NOT_DONE                          00000001
NOT_MCLR                          00000003
NOT_PD                            00000002
NOT_POR                           00000001
NOT_RBPU                          00000007
NOT_RD                            00000000
NOT_RI                            00000004
NOT_SS                            00000005
NOT_T1SYNC                        00000002
NOT_T3SYNC                        00000002
NOT_TO                            00000003
NOT_W                             00000002
NOT_WR                            00000001
NOT_WRITE                         00000002
N_NOTES                           00000006
N_NOTES_REPRODUIDES               00000007
OBF                               00000006
OERR                              00000001
OSC1                              00000007
OSC2                              00000006
OSCCON                            00000FD3
OSCFIE                            00000007
OSCFIF                            00000007
OSCFIP                            00000007
OSCTUNE                           00000F9B
OSTS                              00000003
OV                                00000003
P                                 00000004
P1A                               00000002
P1B                               00000005
P1C                               00000006
P1D                               00000007
P1M0                              00000006
P1M1                              00000007
PC                                00000FF9
PCFG0                             00000000
PCFG1                             00000001
PCFG2                             00000002
PCFG3                             00000003
PCL                               00000FF9
PCLATH                            00000FFA
PCLATU                            00000FFB
PD                                00000002
PDC0                              00000000
PDC1                              00000001
PDC2                              00000002
PDC3                              00000003
PDC4                              00000004
PDC5                              00000005
PDC6                              00000006
PEIE                              00000006
PEIE_GIEL                         00000006
MPASM 5.86                          MAIN.ASM   11-26-2024  14:22:36         PAGE 29


SYMBOL TABLE
  LABEL                             VALUE 

PEN                               00000002
PGC                               00000006
PGD                               00000007
PGM                               00000005
PIE1                              00000F9D
PIE2                              00000FA0
PIR1                              00000F9E
PIR2                              00000FA1
PLLEN                             00000006
PLUSW0                            00000FEB
PLUSW1                            00000FE3
PLUSW2                            00000FDB
POR                               00000001
PORTA                             00000F80
PORTB                             00000F81
PORTC                             00000F82
PORTD                             00000F83
PORTE                             00000F84
POSTDEC0                          00000FED
POSTDEC1                          00000FE5
POSTDEC2                          00000FDD
POSTINC0                          00000FEE
POSTINC1                          00000FE6
POSTINC2                          00000FDE
PR2                               00000FCB
PREINC0                           00000FEC
PREINC1                           00000FE4
PREINC2                           00000FDC
PROCESS_CORRECT_ANSWER            000004E0
PROCESS_DISTANCE                  00000372
PROCESS_INCORRECT_ANSWER          000004EA
PROCESS_TIME_TO_SUBTRACT_SERVO    00000204
PROD                              00000FF3
PRODH                             00000FF4
PRODL                             00000FF3
PRSEN                             00000007
PSA                               00000003
PSP0                              00000000
PSP1                              00000001
PSP2                              00000002
PSP3                              00000003
PSP4                              00000004
PSP5                              00000005
PSP6                              00000006
PSP7                              00000007
PSPIE                             00000007
PSPIF                             00000007
PSPIP                             00000007
PSPMODE                           00000004
PSSAC0                            00000002
PSSAC1                            00000003
PSSBD0                            00000000
PSSBD1                            00000001
MPASM 5.86                          MAIN.ASM   11-26-2024  14:22:36         PAGE 30


SYMBOL TABLE
  LABEL                             VALUE 

PWM1CON                           00000FB7
R                                 00000002
RA0                               00000000
RA1                               00000001
RA2                               00000002
RA3                               00000003
RA4                               00000004
RA5                               00000005
RA6                               00000006
RA7                               00000007
RAM_VALUE_AUX1                    00000004
RAM_VALUE_AUX2                    00000005
RB0                               00000000
RB1                               00000001
RB2                               00000002
RB3                               00000003
RB4                               00000004
RB5                               00000005
RB6                               00000006
RB7                               00000007
RBIE                              00000003
RBIF                              00000000
RBIP                              00000000
RBPU                              00000007
RC0                               00000000
RC1                               00000001
RC2                               00000002
RC3                               00000003
RC4                               00000004
RC5                               00000005
RC6                               00000006
RC7                               00000007
RCEN                              00000003
RCIDL                             00000006
RCIE                              00000005
RCIF                              00000005
RCIP                              00000005
RCMT                              00000006
RCON                              00000FD0
RCREG                             00000FAE
RCSTA                             00000FAB
RD                                00000000
RD0                               00000000
RD1                               00000001
RD16                              00000007
RD2                               00000002
RD3                               00000003
RD4                               00000004
RD5                               00000005
RD6                               00000006
RD7                               00000007
RE0                               00000000
RE1                               00000001
MPASM 5.86                          MAIN.ASM   11-26-2024  14:22:36         PAGE 31


SYMBOL TABLE
  LABEL                             VALUE 

RE2                               00000002
RE3                               00000003
RESET_COUNT_3S                    000004B2
RESET_COUNT_3S_LOW                000000F2
RESET_COUNT_500mS                 000004A6
RESET_COUNT_500mS_LOW             000000D2
RESET_COUNT_LENGTH_LOW            00000112
RESET_TIMER0                      000001A0
RESUME_GAME                       00000568
RESUME_HANDLE_NOTE                0000041E
RI                                00000004
RSEN                              00000001
RSI_COUNT_3S                      000000D8
RSI_COUNT_500mS                   000000BA
RSI_COUNT_LENGTH                  000000FC
RSI_TIMER0                        00000052
RX                                00000007
RX9                               00000006
RX9D                              00000000
RXDTP                             00000005
R_NOT_W                           00000002
R_W                               00000002
S                                 00000003
SBOREN                            00000006
SCK                               00000003
SCKP                              00000004
SCL                               00000003
SCS0                              00000000
SCS1                              00000001
SDA                               00000004
SDI                               00000004
SDO                               00000005
SEN                               00000000
SENDB                             00000003
SERVO_ENDED_COUNT                 00000025
SET_COUNT_DURATION_1              00000476
SET_COUNT_DURATION_2              00000482
SET_COUNT_DURATION_3              0000048E
SET_DO                            000001CC
SET_FA                            000001E4
SET_LA                            000001F4
SET_MI                            000001DC
SET_RE                            000001D4
SET_SI                            000001FC
SET_SOL                           000001EC
SHOW_CURRENT_NOTE_7SEG            0000024E
SHOW_LENGTH_LEDS                  000002C6
SHOW_RAM_INFO                     0000022C
SMP                               00000007
SP0                               00000000
SP1                               00000001
SP2                               00000002
SP3                               00000003
MPASM 5.86                          MAIN.ASM   11-26-2024  14:22:36         PAGE 32


SYMBOL TABLE
  LABEL                             VALUE 

SP4                               00000004
SPBRG                             00000FAF
SPBRGH                            00000FB0
SPEAKER_HIGH                      0000009C
SPEAKER_LEVEL                     0000002E
SPEAKER_LOW                       000000A4
SPEN                              00000007
SREN                              00000005
SSPADD                            00000FC8
SSPBUF                            00000FC9
SSPCON1                           00000FC6
SSPCON2                           00000FC5
SSPEN                             00000005
SSPIE                             00000003
SSPIF                             00000003
SSPIP                             00000003
SSPM0                             00000000
SSPM1                             00000001
SSPM2                             00000002
SSPM3                             00000003
SSPOV                             00000006
SSPSTAT                           00000FC7
START_COUNT_3S                    00000434
START_COUNT_NOTE                  00000444
START_GAME                        0000054A
START_GAME_LOOP                   0000057A
STATUS                            00000FD8
STKFUL                            00000007
STKOVF                            00000007
STKPTR                            00000FFC
STKUNF                            00000006
SWDTE                             00000000
SWDTEN                            00000000
SYNC                              00000004
T016BIT                           00000006
T08BIT                            00000006
T0CKI                             00000004
T0CON                             00000FD5
T0CS                              00000005
T0IE                              00000005
T0IF                              00000002
T0PS0                             00000000
T0PS1                             00000001
T0PS2                             00000002
T0SE                              00000004
T13CKI                            00000000
T1CKI                             00000000
T1CKPS0                           00000004
T1CKPS1                           00000005
T1CON                             00000FCD
T1OSCEN                           00000003
T1OSI                             00000001
T1OSO                             00000000
MPASM 5.86                          MAIN.ASM   11-26-2024  14:22:36         PAGE 33


SYMBOL TABLE
  LABEL                             VALUE 

T1RUN                             00000006
T1SYNC                            00000002
T2CKPS0                           00000000
T2CKPS1                           00000001
T2CON                             00000FCA
T2OUTPS0                          00000003
T2OUTPS1                          00000004
T2OUTPS2                          00000005
T2OUTPS3                          00000006
T3CCP1                            00000003
T3CCP2                            00000006
T3CKPS0                           00000004
T3CKPS1                           00000005
T3CON                             00000FB1
T3SYNC                            00000002
TABLAT                            00000FF5
TBLPTR                            00000FF6
TBLPTRH                           00000FF7
TBLPTRL                           00000FF6
TBLPTRU                           00000FF8
TIME_TO_SUBTRACT_SERVO            00000022
TMR0                              00000FD6
TMR0H                             00000FD7
TMR0IE                            00000005
TMR0IF                            00000002
TMR0IP                            00000002
TMR0L                             00000FD6
TMR0ON                            00000007
TMR1                              00000FCE
TMR1CS                            00000001
TMR1H                             00000FCF
TMR1IE                            00000000
TMR1IF                            00000000
TMR1IP                            00000000
TMR1L                             00000FCE
TMR1ON                            00000000
TMR2                              00000FCC
TMR2IE                            00000001
TMR2IF                            00000001
TMR2IP                            00000001
TMR2ON                            00000002
TMR3                              00000FB2
TMR3CS                            00000001
TMR3H                             00000FB3
TMR3IE                            00000001
TMR3IF                            00000001
TMR3IP                            00000001
TMR3L                             00000FB2
TMR3ON                            00000000
TO                                00000003
TOS                               00000FFD
TOSH                              00000FFE
TOSL                              00000FFD
MPASM 5.86                          MAIN.ASM   11-26-2024  14:22:36         PAGE 34


SYMBOL TABLE
  LABEL                             VALUE 

TOSU                              00000FFF
TOTAL_CORRECT                     0000002B
TOUTPS0                           00000003
TOUTPS1                           00000004
TOUTPS2                           00000005
TOUTPS3                           00000006
TRIGGER_SENT                      00000029
TRISA                             00000F92
TRISA0                            00000000
TRISA1                            00000001
TRISA2                            00000002
TRISA3                            00000003
TRISA4                            00000004
TRISA5                            00000005
TRISA6                            00000006
TRISA7                            00000007
TRISB                             00000F93
TRISB0                            00000000
TRISB1                            00000001
TRISB2                            00000002
TRISB3                            00000003
TRISB4                            00000004
TRISB5                            00000005
TRISB6                            00000006
TRISB7                            00000007
TRISC                             00000F94
TRISC0                            00000000
TRISC1                            00000001
TRISC2                            00000002
TRISC3                            00000003
TRISC4                            00000004
TRISC5                            00000005
TRISC6                            00000006
TRISC7                            00000007
TRISD                             00000F95
TRISD0                            00000000
TRISD1                            00000001
TRISD2                            00000002
TRISD3                            00000003
TRISD4                            00000004
TRISD5                            00000005
TRISD6                            00000006
TRISD7                            00000007
TRISE                             00000F96
TRISE0                            00000000
TRISE1                            00000001
TRISE2                            00000002
TRMT                              00000001
TUN0                              00000000
TUN1                              00000001
TUN2                              00000002
TUN3                              00000003
TUN4                              00000004
MPASM 5.86                          MAIN.ASM   11-26-2024  14:22:36         PAGE 35


SYMBOL TABLE
  LABEL                             VALUE 

TX                                00000006
TX9                               00000006
TX9D                              00000000
TXCKP                             00000004
TXEN                              00000005
TXIE                              00000004
TXIF                              00000004
TXIP                              00000004
TXREG                             00000FAD
TXSTA                             00000FAC
UA                                00000001
VCFG0                             00000004
VCFG1                             00000005
VDIRMAG                           00000007
VPP                               00000003
VREFM                             00000002
VREFP                             00000003
W                                 00000000
WAIT_10uS                         000002D8
WAIT_17mS                         00000304
WAIT_1mS                          000002F4
WAIT_500uS                        000002E4
WAIT_LOOP_10uS                    000002DC
WAIT_LOOP_17mS                    00000308
WAIT_LOOP_1mS                     000002F8
WAIT_LOOP_500uS                   000002E8
WAIT_LOOP_SERVO_DOWN              00000338
WAIT_LOOP_SERVO_DOWN_2            00000334
WAIT_LOOP_SERVO_UP                0000031C
WAIT_LOOP_SERVO_UP_2              00000318
WAIT_SERVO_DOWN                   0000032E
WAIT_SERVO_UP                     00000314
WCOL                              00000007
WDTCON                            00000FD1
WR                                00000001
WREG                              00000FE8
WREN                              00000002
WRERR                             00000003
WUE                               00000001
Z                                 00000002
_BBSIZ_BB1K_4L                    000000FF
_BBSIZ_BB256_4L                   000000CF
_BBSIZ_BB512_4L                   000000DF
_BORV_0_2L                        000000E7
_BORV_1_2L                        000000EF
_BORV_2_2L                        000000F7
_BORV_3_2L                        000000FF
_BOR_NOSLP_2L                     000000FD
_BOR_OFF_2L                       000000F9
_BOR_ON_2L                        000000FF
_BOR_SOFT_2L                      000000FB
_CCP2MX_RB3_3H                    000000FE
_CCP2MX_RC1_3H                    000000FF
MPASM 5.86                          MAIN.ASM   11-26-2024  14:22:36         PAGE 36


SYMBOL TABLE
  LABEL                             VALUE 

_CONFIG1H                         00300001
_CONFIG2H                         00300003
_CONFIG2L                         00300002
_CONFIG3H                         00300005
_CONFIG4L                         00300006
_CONFIG5H                         00300009
_CONFIG5L                         00300008
_CONFIG6H                         0030000B
_CONFIG6L                         0030000A
_CONFIG7H                         0030000D
_CONFIG7L                         0030000C
_CP0_OFF_5L                       000000FF
_CP0_ON_5L                        000000FE
_CP1_OFF_5L                       000000FF
_CP1_ON_5L                        000000FD
_CPB_OFF_5H                       000000FF
_CPB_ON_5H                        000000BF
_CPD_OFF_5H                       000000FF
_CPD_ON_5H                        0000007F
_DEBUG_OFF_4L                     000000FF
_DEBUG_ON_4L                      0000007F
_DEVID1                           003FFFFE
_DEVID2                           003FFFFF
_EBTR0_OFF_7L                     000000FF
_EBTR0_ON_7L                      000000FE
_EBTR1_OFF_7L                     000000FF
_EBTR1_ON_7L                      000000FD
_EBTRB_OFF_7H                     000000FF
_EBTRB_ON_7H                      000000BF
_FCMEN_OFF_1H                     000000BF
_FCMEN_ON_1H                      000000FF
_IDLOC0                           00200000
_IDLOC1                           00200001
_IDLOC2                           00200002
_IDLOC3                           00200003
_IDLOC4                           00200004
_IDLOC5                           00200005
_IDLOC6                           00200006
_IDLOC7                           00200007
_IESO_OFF_1H                      0000007F
_IESO_ON_1H                       000000FF
_LPT1OSC_OFF_3H                   000000FB
_LPT1OSC_ON_3H                    000000FF
_LVP_OFF_4L                       000000FB
_LVP_ON_4L                        000000FF
_MCLRE_OFF_3H                     0000007F
_MCLRE_ON_3H                      000000FF
_OSC_ECIO_1H                      000000F5
_OSC_EC_1H                        000000F4
_OSC_HSPLL_1H                     000000F6
_OSC_HS_1H                        000000F2
_OSC_INTIO1_1H                    000000F9
_OSC_INTIO2_1H                    000000F8
MPASM 5.86                          MAIN.ASM   11-26-2024  14:22:36         PAGE 37


SYMBOL TABLE
  LABEL                             VALUE 

_OSC_LP_1H                        000000F0
_OSC_RCIO_1H                      000000F7
_OSC_RC_1H                        000000F3
_OSC_XT_1H                        000000F1
_PBADEN_ANA_3H                    000000FF
_PBADEN_DIG_3H                    000000FD
_PWRT_OFF_2L                      000000FF
_PWRT_ON_2L                       000000FE
_STVREN_OFF_4L                    000000FE
_STVREN_ON_4L                     000000FF
_WDTPS_1024_2H                    000000F5
_WDTPS_128_2H                     000000EF
_WDTPS_16384_2H                   000000FD
_WDTPS_16_2H                      000000E9
_WDTPS_1_2H                       000000E1
_WDTPS_2048_2H                    000000F7
_WDTPS_256_2H                     000000F1
_WDTPS_2_2H                       000000E3
_WDTPS_32768_2H                   000000FF
_WDTPS_32_2H                      000000EB
_WDTPS_4096_2H                    000000F9
_WDTPS_4_2H                       000000E5
_WDTPS_512_2H                     000000F3
_WDTPS_64_2H                      000000ED
_WDTPS_8192_2H                    000000FB
_WDTPS_8_2H                       000000E7
_WDT_OFF_2H                       000000FE
_WDT_ON_2H                        000000FF
_WRT0_OFF_6L                      000000FF
_WRT0_ON_6L                       000000FE
_WRT1_OFF_6L                      000000FF
_WRT1_ON_6L                       000000FD
_WRTB_OFF_6H                      000000FF
_WRTB_ON_6H                       000000BF
_WRTC_OFF_6H                      000000FF
_WRTC_ON_6H                       000000DF
_WRTD_OFF_6H                      000000FF
_WRTD_ON_6H                       0000007F
_XINST_OFF_4L                     000000BF
_XINST_ON_4L                      000000FF
__18F4321                         00000001

Errors   :     0
Warnings :     0 reported,     0 suppressed
Messages :     0 reported,     0 suppressed

